{
   <tbb_related>
   Memcheck:Leak
   match-leak-kinds: possible
   fun:malloc
   obj:/usr/lib/libtbb.so.2
   fun:_ZN3tbb8internal12NFS_AllocateEmmPv
   obj:/usr/lib/libtbb.so.2
   obj:/usr/lib/libtbb.so.2
   obj:/usr/lib/libtbb.so.2
   obj:/usr/lib/libtbb.so.2
   obj:/usr/lib/libtbb.so.2
   obj:/usr/lib/libtbb.so.2
   fun:_ZN3tbb10interface58internal9task_base7destroyERNS_4taskE
   fun:_ZN6nstore9scheduler14SchedulerStateD1Ev
   fun:_ZN6nstore9scheduler9SchedulerD1Ev
}
{
   <tbb_related>
   Memcheck:Leak
   match-leak-kinds: possible
   fun:malloc
   obj:/usr/lib/libtbb.so.2
   fun:_ZN3tbb8internal12NFS_AllocateEmmPv
   obj:/usr/lib/libtbb.so.2
   obj:/usr/lib/libtbb.so.2
   obj:/usr/lib/libtbb.so.2
   fun:_ZN3tbb10interface58internal9task_base7destroyERNS_4taskE
   fun:_ZN6nstore9scheduler14SchedulerStateD1Ev
   fun:_ZN6nstore9scheduler9SchedulerD1Ev
   fun:__run_exit_handlers
   fun:exit
   fun:(below main)
}
{
   <tbb_related>
   Memcheck:Leak
   match-leak-kinds: possible
   fun:malloc
   obj:/usr/lib/libtbb.so.2
   fun:_ZN3tbb8internal12NFS_AllocateEmmPv
   obj:/usr/lib/libtbb.so.2
   obj:/usr/lib/libtbb.so.2
   obj:/usr/lib/libtbb.so.2
   obj:/usr/lib/libtbb.so.2
   fun:_ZN3tbb10interface58internal9task_base7destroyERNS_4taskE
   fun:_ZN6nstore9scheduler14SchedulerStateD1Ev
   fun:_ZN6nstore9scheduler9SchedulerD1Ev
   fun:__run_exit_handlers
   fun:exit
}
{
   <tbb_related>
   Memcheck:Leak
   match-leak-kinds: possible
   fun:malloc
   obj:/usr/lib/libtbb.so.2
   fun:_ZN3tbb8internal12NFS_AllocateEmmPv
   obj:/usr/lib/libtbb.so.2
   obj:/usr/lib/libtbb.so.2
   obj:/usr/lib/libtbb.so.2
   obj:/usr/lib/libtbb.so.2
   obj:/usr/lib/libtbb.so.2
   fun:_ZN3tbb10interface58internal9task_base7destroyERNS_4taskE
   fun:_ZN6nstore9scheduler14SchedulerStateD1Ev
   fun:_ZN6nstore9scheduler9SchedulerD1Ev
   fun:__run_exit_handlers
}
{
   <tbb_related>
   Memcheck:Leak
   match-leak-kinds: possible
   fun:malloc
   obj:/usr/lib/libtbb.so.2
   fun:_ZN3tbb8internal12NFS_AllocateEmmPv
   obj:/usr/lib/libtbb.so.2
   obj:/usr/lib/libtbb.so.2
   obj:/usr/lib/libtbb.so.2
   obj:/usr/lib/libtbb.so.2
   obj:/usr/lib/libtbb.so.2
   obj:/usr/lib/libtbb.so.2
   obj:/usr/lib/libtbb.so.2
   fun:_ZN3tbb10interface58internal9task_base7destroyERNS_4taskE
   fun:_ZN6nstore9scheduler14SchedulerStateD1Ev
}
{
   <tbb_related>
   Memcheck:Leak
   match-leak-kinds: possible
   fun:malloc
   obj:/usr/lib/libtbb.so.2
   fun:_ZN3tbb8internal12NFS_AllocateEmmPv
   obj:/usr/lib/libtbb.so.2
   obj:/usr/lib/libtbb.so.2
   obj:/usr/lib/libtbb.so.2
   fun:_ZN3tbb10interface58internal9task_base7destroyERNS_4taskE
   fun:_ZN6nstore9scheduler14SchedulerStateD1Ev
   fun:_ZN6nstore9scheduler9SchedulerD1Ev
   fun:__run_exit_handlers
   fun:exit
   fun:(below main)
}
{
   <tbb_related>
   Memcheck:Leak
   match-leak-kinds: possible
   fun:malloc
   fun:_ZN3tbb8internal23allocate_via_handler_v3Em
   obj:/usr/lib/libtbb.so.2
   obj:/usr/lib/libtbb.so.2
   obj:/usr/lib/libtbb.so.2
   obj:/usr/lib/libtbb.so.2
   fun:_ZN3tbb10interface58internal9task_base7destroyERNS_4taskE
   fun:_ZN6nstore9scheduler14SchedulerStateD1Ev
   fun:_ZN6nstore9scheduler9SchedulerD1Ev
   fun:__run_exit_handlers
   fun:exit
   fun:(below main)
}
{
   <tbb_related>
   Memcheck:Leak
   match-leak-kinds: possible
   fun:_Znam
   obj:/usr/lib/libtbb.so.2
   obj:/usr/lib/libtbb.so.2
   obj:/usr/lib/libtbb.so.2
   obj:/usr/lib/libtbb.so.2
   fun:_ZN3tbb10interface58internal9task_base7destroyERNS_4taskE
   fun:_ZN6nstore9scheduler14SchedulerStateD1Ev
   fun:_ZN6nstore9scheduler9SchedulerD1Ev
   fun:__run_exit_handlers
   fun:exit
   fun:(below main)
}
{
   <tbb_related>
   Memcheck:Leak
   match-leak-kinds: possible
   fun:malloc
   obj:/usr/lib/libtbb.so.2
   fun:_ZN3tbb8internal12NFS_AllocateEmmPv
   obj:/usr/lib/libtbb.so.2
   obj:/usr/lib/libtbb.so.2
   obj:/usr/lib/libtbb.so.2
   fun:_ZN3tbb10interface58internal9task_base7destroyERNS_4taskE
   fun:_ZN6nstore9scheduler14SchedulerStateD1Ev
   fun:_ZN6nstore9scheduler9SchedulerD1Ev
   fun:__run_exit_handlers
   fun:exit
   fun:(below main)
}
{
   <tbb_related>
   Memcheck:Leak
   match-leak-kinds: possible
   fun:malloc
   fun:_ZN3tbb8internal23allocate_via_handler_v3Em
   obj:/usr/lib/libtbb.so.2
   obj:/usr/lib/libtbb.so.2
   obj:/usr/lib/libtbb.so.2
   obj:/usr/lib/libtbb.so.2
   fun:_ZN3tbb10interface58internal9task_base7destroyERNS_4taskE
   fun:_ZN6nstore9scheduler14SchedulerStateD1Ev
   fun:_ZN6nstore9scheduler9SchedulerD1Ev
   fun:__run_exit_handlers
   fun:exit
   fun:(below main)
}
